target datalayout = "e-m:e-p270:32:32-p271:32:32-p272:64:64-i64:64-i128:128-f80:128-n8:16:32:64-S128"
target triple = "x86_64-pc-linux-gnu"

%union.pthread_mutex_t = type { %struct.__pthread_mutex_s }
%struct.__pthread_mutex_s = type { i32, i32, i32, i32, i32, i16, i16, %struct.__pthread_internal_list }
%struct.__pthread_internal_list = type { ptr, ptr }
%"struct.std::__cxx11::basic_string<char>::_Alloc_hider" = type { ptr }
%"class.std::__cxx11::basic_string" = type { %"struct.std::__cxx11::basic_string<char>::_Alloc_hider", i64, %union.anon }
%union.anon = type { i64, [8 x i8] }
%"class.std::scoped_lock" = type { ptr }
%struct.siginfo_t = type { i32, i32, i32, i32, %union.anon.4 }
%union.anon.4 = type { %struct.anon.7, [80 x i8] }
%struct.anon.7 = type { i32, i32, i32, i64, i64 }
%struct.anon.8 = type { ptr, i16, %union.anon.9 }
%union.anon.9 = type { %struct.anon.10 }
%struct.anon.10 = type { ptr, ptr }
%"class.std::__mutex_base" = type { %union.pthread_mutex_t }

@_ZN4mold14output_tmpfileE = linkonce_odr dso_local global ptr null, comdat, align 8
@_ZZN4moldL10sighandlerEiP9siginfo_tPvE2mu = internal global { %union.pthread_mutex_t } zeroinitializer, align 8
@_ZN4mold19output_buffer_startE = linkonce_odr dso_local global ptr null, comdat, align 8
@_ZN4mold17output_buffer_endE = linkonce_odr dso_local global ptr null, comdat, align 8
@__const._ZN4moldL10sighandlerEiP9siginfo_tPv.msg = private unnamed_addr constant [53 x i8] c"mold: failed to write to an output file. Disk full?\0A\00", align 16

; Function Attrs: inlinehint mustprogress nounwind
define internal noundef i32 @_ZL18__gthread_active_pv() #7 {
  ret i32 1
}

; Function Attrs: inlinehint mustprogress nounwind
define internal noundef i32 @_ZL22__gthread_mutex_unlockP15pthread_mutex_t(ptr noundef %0) #7 {
  %2 = alloca i32, align 4
  %3 = alloca ptr, align 8
  store ptr %0, ptr %3, align 8, !tbaa !31
  %4 = call noundef i32 @_ZL18__gthread_active_pv()
  %5 = icmp ne i32 %4, 0
  br i1 %5, label %6, label %9

6:                                                ; preds = %1
  %7 = load ptr, ptr %3, align 8, !tbaa !31
  %8 = call i32 @pthread_mutex_unlock(ptr noundef %7) #3
  store i32 %8, ptr %2, align 4
  br label %10

9:                                                ; preds = %1
  store i32 0, ptr %2, align 4
  br label %10

10:                                               ; preds = %9, %6
  %11 = load i32, ptr %2, align 4
  ret i32 %11
}

; Function Attrs: inlinehint mustprogress nounwind
define internal noundef i32 @_ZL20__gthread_mutex_lockP15pthread_mutex_t(ptr noundef %0) #7 {
  %2 = alloca i32, align 4
  %3 = alloca ptr, align 8
  store ptr %0, ptr %3, align 8, !tbaa !31
  %4 = call noundef i32 @_ZL18__gthread_active_pv()
  %5 = icmp ne i32 %4, 0
  br i1 %5, label %6, label %9

6:                                                ; preds = %1
  %7 = load ptr, ptr %3, align 8, !tbaa !31
  %8 = call i32 @pthread_mutex_lock(ptr noundef %7) #3
  store i32 %8, ptr %2, align 4
  br label %10

9:                                                ; preds = %1
  store i32 0, ptr %2, align 4
  br label %10

10:                                               ; preds = %9, %6
  %11 = load i32, ptr %2, align 4
  ret i32 %11
}

; Function Attrs: mustprogress nounwind
define linkonce_odr dso_local void @_ZNSt5mutex6unlockEv(ptr noundef nonnull align 8 dereferenceable(40) %0) #4 comdat align 2 {
  %2 = alloca ptr, align 8
  store ptr %0, ptr %2, align 8, !tbaa !17
  %3 = load ptr, ptr %2, align 8
  %4 = getelementptr inbounds nuw %"class.std::__mutex_base", ptr %3, i32 0, i32 0
  %5 = call noundef i32 @_ZL22__gthread_mutex_unlockP15pthread_mutex_t(ptr noundef %4)
  ret void
}

; Function Attrs: mustprogress nounwind
define linkonce_odr dso_local noundef ptr @_ZNKSt7__cxx1112basic_stringIcSt11char_traitsIcESaIcEE7_M_dataEv(ptr noundef nonnull align 8 dereferenceable(32) %0) #4 comdat align 2 {
  %2 = alloca ptr, align 8
  store ptr %0, ptr %2, align 8, !tbaa !23
  %3 = load ptr, ptr %2, align 8
  %4 = getelementptr inbounds nuw %"class.std::__cxx11::basic_string", ptr %3, i32 0, i32 0
  %5 = getelementptr inbounds nuw %"struct.std::__cxx11::basic_string<char>::_Alloc_hider", ptr %4, i32 0, i32 0
  %6 = load ptr, ptr %5, align 8, !tbaa !50
  ret ptr %6
}

; Function Attrs: mustprogress nounwind
define linkonce_odr dso_local void @_ZNSt5mutex4lockEv(ptr noundef nonnull align 8 dereferenceable(40) %0) #4 comdat align 2 {
  %2 = alloca ptr, align 8
  %3 = alloca i32, align 4
  store ptr %0, ptr %2, align 8, !tbaa !17
  %4 = load ptr, ptr %2, align 8
  call void @llvm.lifetime.start.p0(i64 4, ptr %3) #3
  %5 = getelementptr inbounds nuw %"class.std::__mutex_base", ptr %4, i32 0, i32 0
  %6 = call noundef i32 @_ZL20__gthread_mutex_lockP15pthread_mutex_t(ptr noundef %5)
  store i32 %6, ptr %3, align 4, !tbaa !13
  %7 = load i32, ptr %3, align 4, !tbaa !13
  %8 = icmp ne i32 %7, 0
  br i1 %8, label %9, label %11

9:                                                ; preds = %1
  %10 = load i32, ptr %3, align 4, !tbaa !13
  call void @_ZSt20__throw_system_errori(i32 noundef %10) #15
  unreachable

11:                                               ; preds = %1
  call void @llvm.lifetime.end.p0(i64 4, ptr %3) #3
  ret void
}

; Function Attrs: mustprogress nounwind
define linkonce_odr dso_local void @_ZNSt11scoped_lockIJSt5mutexEED2Ev(ptr noundef nonnull align 8 dereferenceable(8) %0) unnamed_addr #4 comdat align 2 {
  %2 = alloca ptr, align 8
  store ptr %0, ptr %2, align 8, !tbaa !15
  %3 = load ptr, ptr %2, align 8
  %4 = getelementptr inbounds nuw %"class.std::scoped_lock", ptr %3, i32 0, i32 0
  %5 = load ptr, ptr %4, align 8, !tbaa !19
  call void @_ZNSt5mutex6unlockEv(ptr noundef nonnull align 8 dereferenceable(40) %5)
  ret void
}

; Function Attrs: mustprogress nounwind
define dso_local void @_ZN4mold7cleanupEv() #4 {
  %1 = load ptr, ptr @_ZN4mold14output_tmpfileE, align 8, !tbaa !25
  %2 = icmp ne ptr %1, null
  br i1 %2, label %3, label %6

3:                                                ; preds = %0
  %4 = load ptr, ptr @_ZN4mold14output_tmpfileE, align 8, !tbaa !25
  %5 = call i32 @unlink(ptr noundef %4) #3
  br label %6

6:                                                ; preds = %3, %0
  ret void
}

; Function Attrs: mustprogress nounwind
define linkonce_odr dso_local noundef i64 @_ZNKSt7__cxx1112basic_stringIcSt11char_traitsIcESaIcEE4sizeEv(ptr noundef nonnull align 8 dereferenceable(32) %0) #4 comdat align 2 {
  %2 = alloca ptr, align 8
  store ptr %0, ptr %2, align 8, !tbaa !23
  %3 = load ptr, ptr %2, align 8
  %4 = getelementptr inbounds nuw %"class.std::__cxx11::basic_string", ptr %3, i32 0, i32 1
  %5 = load i64, ptr %4, align 8, !tbaa !58
  ret i64 %5
}

; Function Attrs: mustprogress nounwind
define linkonce_odr dso_local noundef nonnull align 1 dereferenceable(1) ptr @_ZNSt7__cxx1112basic_stringIcSt11char_traitsIcESaIcEEixEm(ptr noundef nonnull align 8 dereferenceable(32) %0, i64 noundef %1) #4 comdat align 2 {
  %3 = alloca ptr, align 8
  %4 = alloca i64, align 8
  store ptr %0, ptr %3, align 8, !tbaa !23
  store i64 %1, ptr %4, align 8, !tbaa !32
  %5 = load ptr, ptr %3, align 8
  br label %6

6:                                                ; preds = %2
  br label %7

7:                                                ; preds = %6
  %8 = call noundef ptr @_ZNKSt7__cxx1112basic_stringIcSt11char_traitsIcESaIcEE7_M_dataEv(ptr noundef nonnull align 8 dereferenceable(32) %5)
  %9 = load i64, ptr %4, align 8, !tbaa !32
  %10 = getelementptr inbounds nuw i8, ptr %8, i64 %9
  ret ptr %10
}

; Function Attrs: mustprogress nounwind
define linkonce_odr dso_local void @_ZNSt11scoped_lockIJSt5mutexEEC2ERS0_(ptr noundef nonnull align 8 dereferenceable(8) %0, ptr noundef nonnull align 8 dereferenceable(40) %1) unnamed_addr #4 comdat align 2 {
  %3 = alloca ptr, align 8
  %4 = alloca ptr, align 8
  store ptr %0, ptr %3, align 8, !tbaa !15
  store ptr %1, ptr %4, align 8, !tbaa !17
  %5 = load ptr, ptr %3, align 8
  %6 = getelementptr inbounds nuw %"class.std::scoped_lock", ptr %5, i32 0, i32 0
  %7 = load ptr, ptr %4, align 8, !tbaa !17
  store ptr %7, ptr %6, align 8, !tbaa !17
  %8 = getelementptr inbounds nuw %"class.std::scoped_lock", ptr %5, i32 0, i32 0
  %9 = load ptr, ptr %8, align 8, !tbaa !19
  call void @_ZNSt5mutex4lockEv(ptr noundef nonnull align 8 dereferenceable(40) %9)
  ret void
}

; Function Attrs: mustprogress nounwind
define internal void @_ZN4moldL10sighandlerEiP9siginfo_tPv(i32 noundef %0, ptr noundef %1, ptr noundef %2) #4 {
  %4 = alloca i32, align 4
  %5 = alloca ptr, align 8
  %6 = alloca ptr, align 8
  %7 = alloca %"class.std::scoped_lock", align 8
  %8 = alloca [53 x i8], align 16
  store i32 %0, ptr %4, align 4, !tbaa !13
  store ptr %1, ptr %5, align 8, !tbaa !31
  store ptr %2, ptr %6, align 8, !tbaa !31
  call void @llvm.lifetime.start.p0(i64 8, ptr %7) #3
  call void @_ZNSt11scoped_lockIJSt5mutexEEC2ERS0_(ptr noundef nonnull align 8 dereferenceable(8) %7, ptr noundef nonnull align 8 dereferenceable(40) @_ZZN4moldL10sighandlerEiP9siginfo_tPvE2mu)
  %9 = load i32, ptr %4, align 4, !tbaa !13
  switch i32 %9, label %32 [
    i32 11, label %10
    i32 7, label %10
    i32 6, label %28
  ]

10:                                               ; preds = %3, %3
  %11 = load ptr, ptr @_ZN4mold19output_buffer_startE, align 8, !tbaa !25
  %12 = load ptr, ptr %5, align 8, !tbaa !31
  %13 = getelementptr inbounds nuw %struct.siginfo_t, ptr %12, i32 0, i32 4
  %14 = getelementptr inbounds nuw %struct.anon.8, ptr %13, i32 0, i32 0
  %15 = load ptr, ptr %14, align 8, !tbaa !27
  %16 = icmp ule ptr %11, %15
  br i1 %16, label %17, label %27

17:                                               ; preds = %10
  %18 = load ptr, ptr %5, align 8, !tbaa !31
  %19 = getelementptr inbounds nuw %struct.siginfo_t, ptr %18, i32 0, i32 4
  %20 = getelementptr inbounds nuw %struct.anon.8, ptr %19, i32 0, i32 0
  %21 = load ptr, ptr %20, align 8, !tbaa !27
  %22 = load ptr, ptr @_ZN4mold17output_buffer_endE, align 8, !tbaa !25
  %23 = icmp ult ptr %21, %22
  br i1 %23, label %24, label %27

24:                                               ; preds = %17
  call void @llvm.lifetime.start.p0(i64 53, ptr %8) #3
  call void @llvm.memcpy.p0.p0.i64(ptr align 16 %8, ptr align 16 @__const._ZN4moldL10sighandlerEiP9siginfo_tPv.msg, i64 53, i1 false)
  %25 = getelementptr inbounds [53 x i8], ptr %8, i64 0, i64 0
  %26 = call i64 @write(i32 noundef 2, ptr noundef %25, i64 noundef 52)
  call void @llvm.lifetime.end.p0(i64 53, ptr %8) #3
  br label %27

27:                                               ; preds = %24, %17, %10
  br label %32

28:                                               ; preds = %3
  %29 = call noundef nonnull align 1 dereferenceable(1) ptr @_ZNSt7__cxx1112basic_stringIcSt11char_traitsIcESaIcEEixEm(ptr noundef nonnull align 8 dereferenceable(32) @_ZN4moldL11sigabrt_msgB5cxx11E, i64 noundef 0)
  %30 = call noundef i64 @_ZNKSt7__cxx1112basic_stringIcSt11char_traitsIcESaIcEE4sizeEv(ptr noundef nonnull align 8 dereferenceable(32) @_ZN4moldL11sigabrt_msgB5cxx11E) #3
  %31 = call i64 @write(i32 noundef 2, ptr noundef %29, i64 noundef %30)
  br label %32

32:                                               ; preds = %3, %28, %27
  %33 = call ptr @signal(i32 noundef 11, ptr noundef null) #3
  %34 = call ptr @signal(i32 noundef 7, ptr noundef null) #3
  %35 = call ptr @signal(i32 noundef 6, ptr noundef null) #3
  call void @_ZN4mold7cleanupEv()
  %36 = load i32, ptr %4, align 4, !tbaa !13
  %37 = call i32 @raise(i32 noundef %36) #3
  call void @_ZNSt11scoped_lockIJSt5mutexEED2Ev(ptr noundef nonnull align 8 dereferenceable(8) %7) #3
  call void @llvm.lifetime.end.p0(i64 8, ptr %7) #3
  ret void
}