; Function Attrs: mustprogress nounwind
define internal void @_ZN4moldL10sighandlerEiP9siginfo_tPv(i32 noundef %0, ptr noundef readonly captures(none) %1, ptr readnone captures(none) %2) #4 {
  %4 = tail call noundef i32 @pthread_mutex_lock(ptr noundef nonnull align 8 dereferenceable(40) @_ZZN4moldL10sighandlerEiP9siginfo_tPvE2mu) #19
  %.not.i.i = icmp eq i32 %4, 0
  br i1 %.not.i.i, label %_ZNSt11scoped_lockIJSt5mutexEEC2ERS0_.exit, label %5

5:                                                ; preds = %3
  tail call void @_ZSt20__throw_system_errori(i32 noundef %4) #21
  unreachable

_ZNSt11scoped_lockIJSt5mutexEEC2ERS0_.exit:       ; preds = %3
  switch i32 %0, label %18 [
    i32 11, label %6
    i32 7, label %6
    i32 6, label %14
  ]

6:                                                ; preds = %_ZNSt11scoped_lockIJSt5mutexEEC2ERS0_.exit, %_ZNSt11scoped_lockIJSt5mutexEEC2ERS0_.exit
  %7 = load ptr, ptr @_ZN4mold19output_buffer_startE, align 8, !tbaa !22
  %8 = getelementptr inbounds nuw i8, ptr %1, i64 16
  %9 = load ptr, ptr %8, align 8, !tbaa !20
  %.not = icmp ule ptr %7, %9
  %10 = load ptr, ptr @_ZN4mold17output_buffer_endE, align 8
  %11 = icmp ult ptr %9, %10
  %or.cond = select i1 %.not, i1 %11, i1 false
  br i1 %or.cond, label %12, label %18

12:                                               ; preds = %6
  %13 = tail call i64 @write(i32 noundef 2, ptr noundef nonnull @__const._ZN4moldL10sighandlerEiP9siginfo_tPv.msg, i64 noundef 52) #19
  br label %18

14:                                               ; preds = %_ZNSt11scoped_lockIJSt5mutexEEC2ERS0_.exit
  %15 = load ptr, ptr @_ZN4moldL11sigabrt_msgB5cxx11E, align 8, !tbaa !17
  %16 = load i64, ptr getelementptr inbounds nuw (i8, ptr @_ZN4moldL11sigabrt_msgB5cxx11E, i64 8), align 8, !tbaa !21
  %17 = tail call i64 @write(i32 noundef 2, ptr noundef nonnull %15, i64 noundef %16) #19
  br label %18

18:                                               ; preds = %6, %12, %14, %_ZNSt11scoped_lockIJSt5mutexEEC2ERS0_.exit
  %19 = tail call ptr @signal(i32 noundef 11, ptr noundef null) #19
  %20 = tail call ptr @signal(i32 noundef 7, ptr noundef null) #19
  %21 = tail call ptr @signal(i32 noundef 6, ptr noundef null) #19
  %22 = load ptr, ptr @_ZN4mold14output_tmpfileE, align 8, !tbaa !22
  %.not.i = icmp eq ptr %22, null
  br i1 %.not.i, label %_ZN4mold7cleanupEv.exit, label %23

23:                                               ; preds = %18
  %24 = tail call i32 @unlink(ptr noundef nonnull %22) #19
  br label %_ZN4mold7cleanupEv.exit

_ZN4mold7cleanupEv.exit:                          ; preds = %18, %23
  %25 = tail call i32 @raise(i32 noundef %0) #19
  %26 = tail call noundef i32 @pthread_mutex_unlock(ptr noundef nonnull align 8 dereferenceable(40) @_ZZN4moldL10sighandlerEiP9siginfo_tPvE2mu) #19
  ret void
}